target datalayout = "e-m:e-p270:32:32-p271:32:32-p272:64:64-i64:64-i128:128-f80:128-n8:16:32:64-S128"
target triple = "x86_64-pc-linux-gnu"

%struct.GDBUserState = type { i32, ptr, i32, i8, [16 x i64], i8, i32, [2 x i32], i32, i32, [128 x i8], i64 }
%struct.GDBState = type { i8, ptr, ptr, ptr, i32, [4096 x i8], i32, i32, i32, ptr, i32, i8, ptr, i32, ptr, ptr, i32, i32, i8 }
%struct.sockaddr_in = type { i16, i16, %struct.in_addr, [8 x i8] }
%struct.in_addr = type { i32 }
%struct.GDBProcess = type { i32, i8, ptr }
%union.__SOCKADDR_ARG = type { ptr }

@gdbserver_user_state = internal global %struct.GDBUserState zeroinitializer, align 8
@gdbserver_state = external global %struct.GDBState, align 8
@.str.34 = private unnamed_addr constant [7 x i8] c"accept\00", align 1
@.str.35 = private unnamed_addr constant [11 x i8] c"setsockopt\00", align 1
@.str.36 = private unnamed_addr constant [14 x i8] c"accept socket\00", align 1

; Function Attrs: nounwind sspstrong uwtable
define internal void @gdb_accept_init(i32 noundef %0) #0 {
  %2 = alloca i32, align 4
  store i32 %0, ptr %2, align 4
  call void @gdb_init_gdbserver_state()
  call void @gdb_create_default_process(ptr noundef @gdbserver_state)
  %3 = load ptr, ptr getelementptr inbounds nuw (%struct.GDBState, ptr @gdbserver_state, i32 0, i32 12), align 8
  %4 = getelementptr inbounds %struct.GDBProcess, ptr %3, i64 0
  %5 = getelementptr inbounds nuw %struct.GDBProcess, ptr %4, i32 0, i32 1
  store i8 1, ptr %5, align 4
  %6 = call ptr @gdb_first_attached_cpu()
  store ptr %6, ptr getelementptr inbounds nuw (%struct.GDBState, ptr @gdbserver_state, i32 0, i32 1), align 8
  %7 = load ptr, ptr getelementptr inbounds nuw (%struct.GDBState, ptr @gdbserver_state, i32 0, i32 1), align 8
  store ptr %7, ptr getelementptr inbounds nuw (%struct.GDBState, ptr @gdbserver_state, i32 0, i32 2), align 8
  %8 = load i32, ptr %2, align 4
  store i32 %8, ptr @gdbserver_user_state, align 8
  ret void
}

; Function Attrs: nounwind sspstrong uwtable
define internal zeroext i1 @gdb_accept_socket(i32 noundef %0) #0 {
  %2 = alloca i1, align 1
  %3 = alloca i32, align 4
  %4 = alloca i32, align 4
  %5 = alloca %union.__SOCKADDR_ARG, align 8
  %6 = alloca i32, align 4
  store i32 %0, ptr %3, align 4
  call void @llvm.lifetime.start.p0(i64 4, ptr %4) #14
  store i32 0, ptr %4, align 4, !annotation !4
  br label %7

7:                                                ; preds = %25, %1
  %8 = load i32, ptr %3, align 4
  store ptr null, ptr %5, align 8
  %9 = getelementptr inbounds nuw %union.__SOCKADDR_ARG, ptr %5, i32 0, i32 0
  %10 = load ptr, ptr %9, align 8
  %11 = call i32 @accept(i32 noundef %8, ptr %10, ptr noundef null)
  store i32 %11, ptr %4, align 4
  %12 = load i32, ptr %4, align 4
  %13 = icmp slt i32 %12, 0
  br i1 %13, label %14, label %19

14:                                               ; preds = %7
  %15 = call ptr @__errno_location() #15
  %16 = load i32, ptr %15, align 4
  %17 = icmp ne i32 %16, 4
  br i1 %17, label %18, label %19

18:                                               ; preds = %14
  call void @perror(ptr noundef @.str.36)
  store i1 false, ptr %2, align 1
  store i32 1, ptr %6, align 4
  br label %28

19:                                               ; preds = %14, %7
  %20 = load i32, ptr %4, align 4
  %21 = icmp sge i32 %20, 0
  br i1 %21, label %22, label %24

22:                                               ; preds = %19
  %23 = load i32, ptr %4, align 4
  call void @qemu_set_cloexec(i32 noundef %23)
  br label %26

24:                                               ; preds = %19
  br label %25

25:                                               ; preds = %24
  br label %7

26:                                               ; preds = %22
  %27 = load i32, ptr %4, align 4
  call void @gdb_accept_init(i32 noundef %27)
  store i1 true, ptr %2, align 1
  store i32 1, ptr %6, align 4
  br label %28

28:                                               ; preds = %26, %18
  call void @llvm.lifetime.end.p0(i64 4, ptr %4) #14
  %29 = load i1, ptr %2, align 1
  ret i1 %29
}

; Function Attrs: nounwind sspstrong uwtable
define internal zeroext i1 @gdb_accept_tcp(i32 noundef %0) #0 {
  %2 = alloca i1, align 1
  %3 = alloca i32, align 4
  %4 = alloca %struct.sockaddr_in, align 4
  %5 = alloca i32, align 4
  %6 = alloca i32, align 4
  %7 = alloca %union.__SOCKADDR_ARG, align 8
  %8 = alloca i32, align 4
  store i32 %0, ptr %3, align 4
  call void @llvm.lifetime.start.p0(i64 16, ptr %4) #14
  call void @llvm.memset.p0.i64(ptr align 4 %4, i8 0, i64 16, i1 false)
  call void @llvm.lifetime.start.p0(i64 4, ptr %5) #14
  store i32 0, ptr %5, align 4, !annotation !4
  call void @llvm.lifetime.start.p0(i64 4, ptr %6) #14
  store i32 0, ptr %6, align 4, !annotation !4
  br label %9

9:                                                ; preds = %27, %1
  store i32 16, ptr %5, align 4
  %10 = load i32, ptr %3, align 4
  store ptr %4, ptr %7, align 8
  %11 = getelementptr inbounds nuw %union.__SOCKADDR_ARG, ptr %7, i32 0, i32 0
  %12 = load ptr, ptr %11, align 8
  %13 = call i32 @accept(i32 noundef %10, ptr %12, ptr noundef %5)
  store i32 %13, ptr %6, align 4
  %14 = load i32, ptr %6, align 4
  %15 = icmp slt i32 %14, 0
  br i1 %15, label %16, label %21

16:                                               ; preds = %9
  %17 = call ptr @__errno_location() #15
  %18 = load i32, ptr %17, align 4
  %19 = icmp ne i32 %18, 4
  br i1 %19, label %20, label %21

20:                                               ; preds = %16
  call void @perror(ptr noundef @.str.34)
  store i1 false, ptr %2, align 1
  store i32 1, ptr %8, align 4
  br label %37

21:                                               ; preds = %16, %9
  %22 = load i32, ptr %6, align 4
  %23 = icmp sge i32 %22, 0
  br i1 %23, label %24, label %26

24:                                               ; preds = %21
  %25 = load i32, ptr %6, align 4
  call void @qemu_set_cloexec(i32 noundef %25)
  br label %28

26:                                               ; preds = %21
  br label %27

27:                                               ; preds = %26
  br label %9

28:                                               ; preds = %24
  %29 = load i32, ptr %6, align 4
  %30 = call i32 @socket_set_nodelay(i32 noundef %29)
  %31 = icmp ne i32 %30, 0
  br i1 %31, label %32, label %35

32:                                               ; preds = %28
  call void @perror(ptr noundef @.str.35)
  %33 = load i32, ptr %6, align 4
  %34 = call i32 @close(i32 noundef %33)
  store i1 false, ptr %2, align 1
  store i32 1, ptr %8, align 4
  br label %37

35:                                               ; preds = %28
  %36 = load i32, ptr %6, align 4
  call void @gdb_accept_init(i32 noundef %36)
  store i1 true, ptr %2, align 1
  store i32 1, ptr %8, align 4
  br label %37

37:                                               ; preds = %35, %32, %20
  call void @llvm.lifetime.end.p0(i64 4, ptr %6) #14
  call void @llvm.lifetime.end.p0(i64 4, ptr %5) #14
  call void @llvm.lifetime.end.p0(i64 16, ptr %4) #14
  %38 = load i1, ptr %2, align 1
  ret i1 %38
}

; Function Attrs: nounwind sspstrong uwtable
define internal zeroext i1 @gdbserver_accept(i32 noundef %0, i32 noundef %1, ptr noundef %2) #0 {
  %4 = alloca i32, align 4
  %5 = alloca i32, align 4
  %6 = alloca ptr, align 8
  %7 = alloca i8, align 1
  store i32 %0, ptr %4, align 4
  store i32 %1, ptr %5, align 4
  store ptr %2, ptr %6, align 8
  call void @llvm.lifetime.start.p0(i64 1, ptr %7) #14
  store i8 0, ptr %7, align 1, !annotation !4
  %8 = load i32, ptr %4, align 4
  %9 = icmp sgt i32 %8, 0
  br i1 %9, label %10, label %14

10:                                               ; preds = %3
  %11 = load i32, ptr %5, align 4
  %12 = call zeroext i1 @gdb_accept_tcp(i32 noundef %11)
  %13 = zext i1 %12 to i8
  store i8 %13, ptr %7, align 1
  br label %24

14:                                               ; preds = %3
  %15 = load i32, ptr %5, align 4
  %16 = call zeroext i1 @gdb_accept_socket(i32 noundef %15)
  %17 = zext i1 %16 to i8
  store i8 %17, ptr %7, align 1
  %18 = load i8, ptr %7, align 1, !range !7, !noundef !8
  %19 = trunc i8 %18 to i1
  br i1 %19, label %20, label %23

20:                                               ; preds = %14
  %21 = load ptr, ptr %6, align 8
  %22 = call noalias ptr @g_strdup(ptr noundef %21)
  store ptr %22, ptr getelementptr inbounds nuw (%struct.GDBUserState, ptr @gdbserver_user_state, i32 0, i32 1), align 8
  br label %23

23:                                               ; preds = %20, %14
  br label %24

24:                                               ; preds = %23, %10
  %25 = load i8, ptr %7, align 1, !range !7, !noundef !8
  %26 = trunc i8 %25 to i1
  br i1 %26, label %30, label %27

27:                                               ; preds = %24
  %28 = load i32, ptr %5, align 4
  %29 = call i32 @close(i32 noundef %28)
  br label %30

30:                                               ; preds = %27, %24
  %31 = load i8, ptr %7, align 1, !range !7, !noundef !8
  %32 = trunc i8 %31 to i1
  call void @llvm.lifetime.end.p0(i64 1, ptr %7) #14
  ret i1 %32
}