; Function Attrs: nounwind sspstrong uwtable
define internal fastcc noundef zeroext i1 @gdbserver_accept(i32 noundef %0, i32 noundef %1, ptr noundef %2) unnamed_addr #0 {
  %4 = alloca %struct.sockaddr_in, align 4
  %5 = alloca i32, align 4
  %6 = icmp sgt i32 %0, 0
  br i1 %6, label %7, label %.preheader

7:                                                ; preds = %3
  call void @llvm.lifetime.start.p0(i64 16, ptr nonnull %4) #16
  call void @llvm.memset.p0.i64(ptr noundef nonnull align 4 dereferenceable(16) %4, i8 0, i64 16, i1 false)
  call void @llvm.lifetime.start.p0(i64 4, ptr nonnull %5) #16
  br label %8

8:                                                ; preds = %11, %7
  store i32 16, ptr %5, align 4
  %9 = call i32 @accept(i32 noundef %1, ptr nonnull %4, ptr noundef nonnull %5) #16
  %10 = icmp slt i32 %9, 0
  br i1 %10, label %11, label %15

11:                                               ; preds = %8
  %12 = tail call ptr @__errno_location() #17
  %13 = load i32, ptr %12, align 4
  %.not.i = icmp eq i32 %13, 4
  br i1 %.not.i, label %8, label %14

14:                                               ; preds = %11
  call void @perror(ptr noundef nonnull @.str.34) #20
  br label %.thread13

15:                                               ; preds = %8
  call void @qemu_set_cloexec(i32 noundef %9) #16
  %16 = call i32 @socket_set_nodelay(i32 noundef %9) #16
  %.not8.i = icmp eq i32 %16, 0
  br i1 %.not8.i, label %28, label %17

17:                                               ; preds = %15
  call void @perror(ptr noundef nonnull @.str.35) #20
  %18 = call i32 @close(i32 noundef %9) #16
  br label %.thread13

.preheader:                                       ; preds = %3, %21
  %19 = tail call i32 @accept(i32 noundef %1, ptr null, ptr noundef null) #16
  %20 = icmp sgt i32 %19, -1
  br i1 %20, label %.thread, label %21

21:                                               ; preds = %.preheader
  %22 = tail call ptr @__errno_location() #17
  %23 = load i32, ptr %22, align 4
  %.not.i7 = icmp eq i32 %23, 4
  br i1 %.not.i7, label %.preheader, label %.thread10

.thread10:                                        ; preds = %21
  tail call void @perror(ptr noundef nonnull @.str.36) #20
  br label %32

.thread:                                          ; preds = %.preheader
  tail call void @qemu_set_cloexec(i32 noundef %19) #16
  tail call void @gdb_init_gdbserver_state() #16
  tail call void @gdb_create_default_process(ptr noundef nonnull @gdbserver_state) #16
  %24 = load ptr, ptr getelementptr inbounds nuw (i8, ptr @gdbserver_state, i64 4160), align 8
  %25 = getelementptr inbounds nuw i8, ptr %24, i64 4
  store i8 1, ptr %25, align 4
  %26 = tail call ptr @gdb_first_attached_cpu() #16
  store ptr %26, ptr getelementptr inbounds nuw (i8, ptr @gdbserver_state, i64 8), align 8
  store ptr %26, ptr getelementptr inbounds nuw (i8, ptr @gdbserver_state, i64 16), align 8
  store i32 %19, ptr @gdbserver_user_state, align 8
  %27 = tail call noalias ptr @g_strdup(ptr noundef %2) #16
  store ptr %27, ptr getelementptr inbounds nuw (i8, ptr @gdbserver_user_state, i64 8), align 8
  br label %34

.thread13:                                        ; preds = %14, %17
  call void @llvm.lifetime.end.p0(i64 4, ptr nonnull %5) #16
  call void @llvm.lifetime.end.p0(i64 16, ptr nonnull %4) #16
  br label %32

28:                                               ; preds = %15
  call void @gdb_init_gdbserver_state() #16
  call void @gdb_create_default_process(ptr noundef nonnull @gdbserver_state) #16
  %29 = load ptr, ptr getelementptr inbounds nuw (i8, ptr @gdbserver_state, i64 4160), align 8
  %30 = getelementptr inbounds nuw i8, ptr %29, i64 4
  store i8 1, ptr %30, align 4
  %31 = call ptr @gdb_first_attached_cpu() #16
  store ptr %31, ptr getelementptr inbounds nuw (i8, ptr @gdbserver_state, i64 8), align 8
  store ptr %31, ptr getelementptr inbounds nuw (i8, ptr @gdbserver_state, i64 16), align 8
  store i32 %9, ptr @gdbserver_user_state, align 8
  call void @llvm.lifetime.end.p0(i64 4, ptr nonnull %5) #16
  call void @llvm.lifetime.end.p0(i64 16, ptr nonnull %4) #16
  br label %34

32:                                               ; preds = %.thread13, %.thread10
  %33 = call i32 @close(i32 noundef %1) #16
  br label %34

34:                                               ; preds = %28, %.thread, %32
  %.0.in9 = phi i1 [ true, %.thread ], [ false, %32 ], [ true, %28 ]
  ret i1 %.0.in9
}